Certificate Request:
    Data:
        Version: 1 (0x0)
        Subject: C = FR, L = Limoges, O = CRYPTIS, OU = SecuTIC, CN = serveur
        Subject Public Key Info:
            Public Key Algorithm: id-ecPublicKey
                Public-Key: (256 bit)
                pub:
                    04:c4:c6:35:3b:fa:d2:89:ed:a4:16:6b:ad:ee:4e:
                    fe:3e:3c:93:58:cf:92:43:fe:60:8b:16:e5:a5:c3:
                    9f:ec:30:27:d5:74:fc:43:fa:1a:bb:72:10:a3:b0:
                    f0:1e:cc:a3:7d:39:5c:e0:84:eb:4f:6b:24:20:ae:
                    c7:f9:c4:61:05
                ASN1 OID: prime256v1
                NIST CURVE: P-256
        Attributes:
            Requested Extensions:
                X509v3 Basic Constraints: 
                    CA:FALSE
    Signature Algorithm: ecdsa-with-SHA256
    Signature Value:
        30:46:02:21:00:fc:0c:70:24:eb:57:87:6a:be:ed:45:c0:ba:
        ef:fc:93:3a:db:e9:d8:6d:c9:c3:c2:e0:d0:4b:8c:a5:04:61:
        f9:02:21:00:b0:16:0b:7a:3c:32:9e:7f:4a:45:ac:f9:39:a5:
        5b:b6:dd:07:ad:92:ea:70:53:ee:b6:1c:4e:17:61:7f:bf:21
-----BEGIN CERTIFICATE REQUEST-----
MIIBLTCB0wIBADBVMQswCQYDVQQGEwJGUjEQMA4GA1UEBwwHTGltb2dlczEQMA4G
A1UECgwHQ1JZUFRJUzEQMA4GA1UECwwHU2VjdVRJQzEQMA4GA1UEAwwHc2VydmV1
cjBZMBMGByqGSM49AgEGCCqGSM49AwEHA0IABMTGNTv60ontpBZrre5O/j48k1jP
kkP+YIsW5aXDn+wwJ9V0/EP6GrtyEKOw8B7Mo305XOCE609rJCCux/nEYQWgHDAa
BgkqhkiG9w0BCQ4xDTALMAkGA1UdEwQCMAAwCgYIKoZIzj0EAwIDSQAwRgIhAPwM
cCTrV4dqvu1FwLrv/JM62+nYbcnDwuDQS4ylBGH5AiEAsBYLejwynn9KRaz5OaVb
tt0HrZLqcFPuthxOF2F/vyE=
-----END CERTIFICATE REQUEST-----
